; ModuleID = 'source-C-CXX/0/1580.c'
source_filename = "source-C-CXX/0/1580.c"
target datalayout = "e-m:e-p270:32:32-p271:32:32-p272:64:64-i64:64-f80:128-n8:16:32:64-S128"
target triple = "x86_64-pc-linux-gnu"

@.str = private unnamed_addr constant [3 x i8] c"%d\00", align 1
@.str.1 = private unnamed_addr constant [4 x i8] c"%d\0A\00", align 1

; Function Attrs: nofree nounwind sspstrong uwtable
define dso_local i32 @main() local_unnamed_addr #0 {
  %1 = alloca i32, align 4
  %2 = alloca i32, align 4
  %3 = alloca [20000 x i32], align 16
  %4 = bitcast i32* %1 to i8*
  call void @llvm.lifetime.start.p0i8(i64 4, i8* nonnull %4) #5
  %5 = bitcast i32* %2 to i8*
  call void @llvm.lifetime.start.p0i8(i64 4, i8* nonnull %5) #5
  %6 = bitcast [20000 x i32]* %3 to i8*
  call void @llvm.lifetime.start.p0i8(i64 80000, i8* nonnull %6) #5
  call void @llvm.memset.p0i8.i64(i8* noundef nonnull align 16 dereferenceable(80000) %6, i8 0, i64 80000, i1 false)
  %7 = call i32 (i8*, ...) @__isoc99_scanf(i8* getelementptr inbounds ([3 x i8], [3 x i8]* @.str, i64 0, i64 0), i32* nonnull %1)
  %8 = load i32, i32* %1, align 4, !tbaa !5
  %9 = icmp sgt i32 %8, 0
  br i1 %9, label %16, label %12

10:                                               ; preds = %16
  %11 = icmp sgt i32 %24, 1
  br i1 %11, label %27, label %12

12:                                               ; preds = %0, %10
  %13 = phi i32 [ %24, %10 ], [ %8, %0 ]
  %14 = add nsw i32 %13, -1
  %15 = sext i32 %14 to i64
  br label %37

16:                                               ; preds = %0, %16
  %17 = phi i64 [ %23, %16 ], [ 0, %0 ]
  %18 = call i32 (i8*, ...) @__isoc99_scanf(i8* getelementptr inbounds ([3 x i8], [3 x i8]* @.str, i64 0, i64 0), i32* nonnull %2)
  %19 = load i32, i32* %2, align 4, !tbaa !5
  %20 = call i32 @minf(i32 %19, i32 2)
  %21 = getelementptr inbounds [20000 x i32], [20000 x i32]* %3, i64 0, i64 %17
  %22 = add nsw i32 %20, 1
  store i32 %22, i32* %21, align 4, !tbaa !5
  %23 = add nuw nsw i64 %17, 1
  %24 = load i32, i32* %1, align 4, !tbaa !5
  %25 = sext i32 %24 to i64
  %26 = icmp slt i64 %23, %25
  br i1 %26, label %16, label %10, !llvm.loop !9

27:                                               ; preds = %10, %27
  %28 = phi i64 [ %32, %27 ], [ 0, %10 ]
  %29 = getelementptr inbounds [20000 x i32], [20000 x i32]* %3, i64 0, i64 %28
  %30 = load i32, i32* %29, align 4, !tbaa !5
  %31 = call i32 (i8*, ...) @printf(i8* nonnull dereferenceable(1) getelementptr inbounds ([4 x i8], [4 x i8]* @.str.1, i64 0, i64 0), i32 %30)
  %32 = add nuw nsw i64 %28, 1
  %33 = load i32, i32* %1, align 4, !tbaa !5
  %34 = add nsw i32 %33, -1
  %35 = sext i32 %34 to i64
  %36 = icmp slt i64 %32, %35
  br i1 %36, label %27, label %37, !llvm.loop !11

37:                                               ; preds = %27, %12
  %38 = phi i64 [ %15, %12 ], [ %35, %27 ]
  %39 = getelementptr inbounds [20000 x i32], [20000 x i32]* %3, i64 0, i64 %38
  %40 = load i32, i32* %39, align 4, !tbaa !5
  %41 = call i32 (i8*, ...) @printf(i8* nonnull dereferenceable(1) getelementptr inbounds ([3 x i8], [3 x i8]* @.str, i64 0, i64 0), i32 %40)
  call void @llvm.lifetime.end.p0i8(i64 80000, i8* nonnull %6) #5
  call void @llvm.lifetime.end.p0i8(i64 4, i8* nonnull %5) #5
  call void @llvm.lifetime.end.p0i8(i64 4, i8* nonnull %4) #5
  ret i32 0
}

; Function Attrs: argmemonly mustprogress nofree nosync nounwind willreturn
declare void @llvm.lifetime.start.p0i8(i64 immarg, i8* nocapture) #1

; Function Attrs: argmemonly mustprogress nofree nounwind willreturn writeonly
declare void @llvm.memset.p0i8.i64(i8* nocapture writeonly, i8, i64, i1 immarg) #2

; Function Attrs: nofree nounwind
declare noundef i32 @__isoc99_scanf(i8* nocapture noundef readonly, ...) local_unnamed_addr #3

; Function Attrs: nofree nounwind sspstrong uwtable
define dso_local i32 @minf(i32 %0, i32 %1) local_unnamed_addr #0 {
  %3 = sitofp i32 %0 to double
  %4 = tail call double @sqrt(double %3) #5
  %5 = fptosi double %4 to i32
  %6 = icmp slt i32 %5, %1
  br i1 %6, label %23, label %7

7:                                                ; preds = %2, %17
  %8 = phi i32 [ %19, %17 ], [ %1, %2 ]
  %9 = phi i32 [ %18, %17 ], [ 0, %2 ]
  %10 = srem i32 %0, %8
  %11 = sdiv i32 %0, %8
  %12 = icmp eq i32 %10, 0
  br i1 %12, label %13, label %17

13:                                               ; preds = %7
  %14 = tail call i32 @minf(i32 %11, i32 %8)
  %15 = add i32 %9, 1
  %16 = add i32 %15, %14
  br label %17

17:                                               ; preds = %7, %13
  %18 = phi i32 [ %16, %13 ], [ %9, %7 ]
  %19 = add nsw i32 %8, 1
  %20 = tail call double @sqrt(double %3) #5
  %21 = fptosi double %20 to i32
  %22 = icmp slt i32 %8, %21
  br i1 %22, label %7, label %23, !llvm.loop !12

23:                                               ; preds = %17, %2
  %24 = phi i32 [ 0, %2 ], [ %18, %17 ]
  ret i32 %24
}

; Function Attrs: nofree nounwind
declare noundef i32 @printf(i8* nocapture noundef readonly, ...) local_unnamed_addr #3

; Function Attrs: argmemonly mustprogress nofree nosync nounwind willreturn
declare void @llvm.lifetime.end.p0i8(i64 immarg, i8* nocapture) #1

; Function Attrs: mustprogress nofree nounwind willreturn
declare double @sqrt(double) local_unnamed_addr #4


!llvm.module.flags = !{!0, !1, !2, !3}
!llvm.ident = !{!4}

!0 = !{i32 1, !"wchar_size", i32 4}
!1 = !{i32 7, !"PIC Level", i32 2}
!2 = !{i32 7, !"PIE Level", i32 2}
!3 = !{i32 7, !"uwtable", i32 1}
!4 = !{!"clang version 13.0.0"}
!5 = !{!6, !6, i64 0}
!6 = !{!"int", !7, i64 0}
!7 = !{!"omnipotent char", !8, i64 0}
!8 = !{!"Simple C/C++ TBAA"}
!9 = distinct !{!9, !10}
!10 = !{!"llvm.loop.mustprogress"}
!11 = distinct !{!11, !10}
!12 = distinct !{!12, !10}
